target datalayout = "e-m:e-p270:32:32-p271:32:32-p272:64:64-i64:64-i128:128-f80:128-n8:16:32:64-S128"
target triple = "x86_64-pc-linux-gnu"

%"class.llvm::FoldingSetBase::Node" = type { ptr }
%"class.llvm::FoldingSetIteratorImpl" = type { ptr }

; Function Attrs: mustprogress nounwind uwtable
define internal noundef ptr @_ZL12GetBucketPtrPv(ptr noundef %0) #0 {
  %2 = alloca ptr, align 8
  %3 = alloca i64, align 8
  store ptr %0, ptr %2, align 8
  %4 = load ptr, ptr %2, align 8
  %5 = ptrtoint ptr %4 to i64
  store i64 %5, ptr %3, align 8
  %6 = load i64, ptr %3, align 8
  %7 = and i64 %6, -2
  %8 = inttoptr i64 %7 to ptr
  ret ptr %8
}

; Function Attrs: mustprogress nounwind uwtable
define internal noundef ptr @_ZL10GetNextPtrPv(ptr noundef %0) #0 {
  %2 = alloca ptr, align 8
  %3 = alloca ptr, align 8
  store ptr %0, ptr %3, align 8
  %4 = load ptr, ptr %3, align 8
  %5 = ptrtoint ptr %4 to i64
  %6 = and i64 %5, 1
  %7 = icmp ne i64 %6, 0
  br i1 %7, label %8, label %9

8:                                                ; preds = %1
  store ptr null, ptr %2, align 8
  br label %11

9:                                                ; preds = %1
  %10 = load ptr, ptr %3, align 8
  store ptr %10, ptr %2, align 8
  br label %11

11:                                               ; preds = %9, %8
  %12 = load ptr, ptr %2, align 8
  ret ptr %12
}

; Function Attrs: mustprogress nounwind uwtable
define linkonce_odr hidden noundef ptr @_ZNK4llvm14FoldingSetBase4Node15getNextInBucketEv(ptr noundef nonnull align 8 dereferenceable(8) %0) #0 comdat align 2 {
  %2 = alloca ptr, align 8
  store ptr %0, ptr %2, align 8
  %3 = load ptr, ptr %2, align 8
  %4 = getelementptr inbounds nuw %"class.llvm::FoldingSetBase::Node", ptr %3, i32 0, i32 0
  %5 = load ptr, ptr %4, align 8
  ret ptr %5
}

; Function Attrs: mustprogress nounwind uwtable
define dso_local void @_ZN4llvm22FoldingSetIteratorImpl7advanceEv(ptr noundef nonnull align 8 dereferenceable(8) %0) #0 align 2 {
  %2 = alloca ptr, align 8
  %3 = alloca ptr, align 8
  %4 = alloca ptr, align 8
  %5 = alloca ptr, align 8
  store ptr %0, ptr %2, align 8
  %6 = load ptr, ptr %2, align 8
  %7 = getelementptr inbounds nuw %"class.llvm::FoldingSetIteratorImpl", ptr %6, i32 0, i32 0
  %8 = load ptr, ptr %7, align 8
  %9 = call noundef ptr @_ZNK4llvm14FoldingSetBase4Node15getNextInBucketEv(ptr noundef nonnull align 8 dereferenceable(8) %8)
  store ptr %9, ptr %3, align 8
  %10 = load ptr, ptr %3, align 8
  %11 = call noundef ptr @_ZL10GetNextPtrPv(ptr noundef %10)
  store ptr %11, ptr %4, align 8
  %12 = load ptr, ptr %4, align 8
  %13 = icmp ne ptr %12, null
  br i1 %13, label %14, label %17

14:                                               ; preds = %1
  %15 = load ptr, ptr %4, align 8
  %16 = getelementptr inbounds nuw %"class.llvm::FoldingSetIteratorImpl", ptr %6, i32 0, i32 0
  store ptr %15, ptr %16, align 8
  br label %45

17:                                               ; preds = %1
  %18 = load ptr, ptr %3, align 8
  %19 = call noundef ptr @_ZL12GetBucketPtrPv(ptr noundef %18)
  store ptr %19, ptr %5, align 8
  br label %20

20:                                               ; preds = %39, %17
  %21 = load ptr, ptr %5, align 8
  %22 = getelementptr inbounds ptr, ptr %21, i32 1
  store ptr %22, ptr %5, align 8
  br label %23

23:                                               ; preds = %20
  %24 = load ptr, ptr %5, align 8
  %25 = load ptr, ptr %24, align 8
  %26 = icmp ne ptr %25, inttoptr (i64 -1 to ptr)
  br i1 %26, label %27, label %39

27:                                               ; preds = %23
  %28 = load ptr, ptr %5, align 8
  %29 = load ptr, ptr %28, align 8
  %30 = icmp ne ptr %29, null
  br i1 %30, label %31, label %37

31:                                               ; preds = %27
  %32 = load ptr, ptr %5, align 8
  %33 = load ptr, ptr %32, align 8
  %34 = call noundef ptr @_ZL10GetNextPtrPv(ptr noundef %33)
  %35 = icmp ne ptr %34, null
  %36 = xor i1 %35, true
  br label %37

37:                                               ; preds = %31, %27
  %38 = phi i1 [ true, %27 ], [ %36, %31 ]
  br label %39

39:                                               ; preds = %37, %23
  %40 = phi i1 [ false, %23 ], [ %38, %37 ]
  br i1 %40, label %20, label %41, !llvm.loop !11

41:                                               ; preds = %39
  %42 = load ptr, ptr %5, align 8
  %43 = load ptr, ptr %42, align 8
  %44 = getelementptr inbounds nuw %"class.llvm::FoldingSetIteratorImpl", ptr %6, i32 0, i32 0
  store ptr %43, ptr %44, align 8
  br label %45

45:                                               ; preds = %41, %14
  ret void
}