; Function Attrs: mustprogress nofree norecurse nosync nounwind memory(read, argmem: readwrite, inaccessiblemem: none) uwtable
define dso_local void @_ZN4llvm22FoldingSetIteratorImpl7advanceEv(ptr nocapture noundef nonnull align 8 dereferenceable(8) %0) local_unnamed_addr #12 align 2 {
  %2 = load ptr, ptr %0, align 8
  %3 = load ptr, ptr %2, align 8
  %4 = ptrtoint ptr %3 to i64
  %5 = and i64 %4, 1
  %.not.i = icmp ne i64 %5, 0
  %.not19 = icmp eq ptr %3, null
  %.not = or i1 %.not19, %.not.i
  br i1 %.not, label %6, label %.critedge

6:                                                ; preds = %1
  %7 = and i64 %4, -2
  %8 = inttoptr i64 %7 to ptr
  br label %.critedge2

.critedge2:                                       ; preds = %.critedge2.backedge, %6
  %.0 = phi ptr [ %8, %6 ], [ %9, %.critedge2.backedge ]
  %9 = getelementptr inbounds i8, ptr %.0, i64 8
  %10 = load ptr, ptr %9, align 8
  %magicptr = ptrtoint ptr %10 to i64
  switch i64 %magicptr, label %11 [
    i64 -1, label %.critedge
    i64 0, label %.critedge2.backedge
  ]

11:                                               ; preds = %.critedge2
  %12 = and i64 %magicptr, 1
  %.not.i17 = icmp ne i64 %12, 0
  %.not1620 = icmp eq ptr %10, null
  %.not16 = or i1 %.not1620, %.not.i17
  br i1 %.not16, label %.critedge2.backedge, label %.critedge

.critedge2.backedge:                              ; preds = %11, %.critedge2
  br label %.critedge2, !llvm.loop !11

.critedge:                                        ; preds = %11, %.critedge2, %1
  %storemerge = phi ptr [ %3, %1 ], [ %10, %.critedge2 ], [ %10, %11 ]
  store ptr %storemerge, ptr %0, align 8
  ret void
}